; Function Attrs: nounwind uwtable
define dso_local void @pgstat_update_parallel_workers_stats(i64 noundef %0, i64 noundef %1) local_unnamed_addr #0 {
  %3 = load i32, ptr @MyDatabaseId, align 4
  %.not = icmp eq i32 %3, 0
  br i1 %.not, label %14, label %4

4:                                                ; preds = %2
  %5 = tail call ptr @pgstat_prep_pending_entry(i32 noundef 1, i32 noundef %3, i64 noundef 0, ptr noundef null) #6
  %6 = getelementptr inbounds nuw i8, ptr %5, i64 24
  %7 = load ptr, ptr %6, align 8
  %8 = getelementptr inbounds nuw i8, ptr %7, i64 240
  %9 = load i64, ptr %8, align 8
  %10 = add i64 %9, %0
  store i64 %10, ptr %8, align 8
  %11 = getelementptr inbounds nuw i8, ptr %7, i64 248
  %12 = load i64, ptr %11, align 8
  %13 = add i64 %12, %1
  store i64 %13, ptr %11, align 8
  br label %14

14:                                               ; preds = %2, %4
  ret void
}